; Function Attrs: mustprogress uwtable
define void @_ZN6marisa8grimoire2io6Mapper4openEPKc(ptr noundef nonnull align 8 captures(none) dereferenceable(36) %0, ptr noundef readonly %1) local_unnamed_addr #6 align 2 personality ptr @__gxx_personality_v0 {
  %3 = alloca %"class.marisa::grimoire::io::Mapper", align 8
  %4 = icmp eq ptr %1, null
  br i1 %4, label %5, label %11

5:                                                ; preds = %2
  %6 = tail call ptr @__cxa_allocate_exception(i64 32) #15
  store ptr getelementptr inbounds nuw inrange(-16, 24) (i8, ptr @_ZTVN6marisa9ExceptionE, i64 16), ptr %6, align 8, !tbaa !13
  %7 = getelementptr inbounds nuw i8, ptr %6, i64 8
  store ptr @.str, ptr %7, align 8, !tbaa !15
  %8 = getelementptr inbounds nuw i8, ptr %6, i64 16
  store i32 55, ptr %8, align 8, !tbaa !20
  %9 = getelementptr inbounds nuw i8, ptr %6, i64 20
  store i32 2, ptr %9, align 4, !tbaa !21
  %10 = getelementptr inbounds nuw i8, ptr %6, i64 24
  store ptr @.str.1, ptr %10, align 8, !tbaa !22
  tail call void @__cxa_throw(ptr nonnull %6, ptr nonnull @_ZTIN6marisa9ExceptionE, ptr nonnull @_ZNSt9exceptionD2Ev) #17
  unreachable

11:                                               ; preds = %2
  call void @llvm.lifetime.start.p0(i64 40, ptr nonnull %3) #15
  call void @_ZN6marisa8grimoire2io6MapperC1Ev(ptr noundef nonnull align 8 dereferenceable(36) %3)
  invoke void @_ZN6marisa8grimoire2io6Mapper5open_EPKc(ptr noundef nonnull align 8 dereferenceable(36) %3, ptr noundef nonnull %1)
          to label %12 unwind label %31

12:                                               ; preds = %11
  %13 = load ptr, ptr %0, align 8, !tbaa !23
  %14 = load ptr, ptr %3, align 8, !tbaa !23
  store ptr %14, ptr %0, align 8, !tbaa !23
  store ptr %13, ptr %3, align 8, !tbaa !23
  %15 = getelementptr inbounds nuw i8, ptr %0, i64 16
  %16 = getelementptr inbounds nuw i8, ptr %3, i64 16
  %17 = load i64, ptr %15, align 8, !tbaa !24
  %18 = load i64, ptr %16, align 8, !tbaa !24
  store i64 %18, ptr %15, align 8, !tbaa !24
  store i64 %17, ptr %16, align 8, !tbaa !24
  %19 = getelementptr inbounds nuw i8, ptr %0, i64 8
  %20 = getelementptr inbounds nuw i8, ptr %3, i64 8
  %21 = load ptr, ptr %19, align 8, !tbaa !23
  %22 = load ptr, ptr %20, align 8, !tbaa !23
  store ptr %22, ptr %19, align 8, !tbaa !23
  store ptr %21, ptr %20, align 8, !tbaa !23
  %23 = getelementptr inbounds nuw i8, ptr %0, i64 24
  %24 = getelementptr inbounds nuw i8, ptr %3, i64 24
  %25 = load i64, ptr %23, align 8, !tbaa !24
  %26 = load i64, ptr %24, align 8, !tbaa !24
  store i64 %26, ptr %23, align 8, !tbaa !24
  store i64 %25, ptr %24, align 8, !tbaa !24
  %27 = getelementptr inbounds nuw i8, ptr %0, i64 32
  %28 = getelementptr inbounds nuw i8, ptr %3, i64 32
  %29 = load i32, ptr %27, align 8, !tbaa !25
  %30 = load i32, ptr %28, align 8, !tbaa !25
  store i32 %30, ptr %27, align 8, !tbaa !25
  store i32 %29, ptr %28, align 8, !tbaa !25
  call void @_ZN6marisa8grimoire2io6MapperD1Ev(ptr noundef nonnull align 8 dereferenceable(36) %3) #15
  call void @llvm.lifetime.end.p0(i64 40, ptr nonnull %3) #15
  ret void

31:                                               ; preds = %11
  %32 = landingpad { ptr, i32 }
          cleanup
  call void @_ZN6marisa8grimoire2io6MapperD1Ev(ptr noundef nonnull align 8 dereferenceable(36) %3) #15
  call void @llvm.lifetime.end.p0(i64 40, ptr nonnull %3) #15
  resume { ptr, i32 } %32
}